target datalayout = "e-m:e-p270:32:32-p271:32:32-p272:64:64-i64:64-i128:128-f80:128-n8:16:32:64-S128"
target triple = "x86_64-pc-linux-gnu"

%struct.AVFormatContext = type { ptr, ptr, ptr, ptr, ptr, i32, i32, ptr, i32, ptr, i32, ptr, ptr, i64, i64, i64, i32, i32, i32, i64, i64, ptr, i32, i32, ptr, i32, i32, i32, i32, ptr, i64, i32, i32, %struct.AVIOInterruptCB, i32, i32, i32, i32, i64, i32, i32, i32, i32, i32, i32, i32, i32, i32, i32, i32, i32, i64, i32, i32, i32, i32, i32, ptr, ptr, ptr, ptr, i32, ptr, ptr, ptr, ptr, i32, ptr, ptr, i64, ptr, ptr, ptr, i64 }
%struct.AVIOInterruptCB = type { ptr, ptr }
%struct.AVStream = type { ptr, i32, i32, ptr, ptr, %struct.AVRational, i64, i64, i64, i32, i32, %struct.AVRational, ptr, %struct.AVRational, %struct.AVPacket, i32, %struct.AVRational, i32 }
%struct.AVPacket = type { ptr, i64, i64, ptr, i32, i32, i32, ptr, i32, i64, i64, ptr, ptr, %struct.AVRational }
%struct.AVRational = type { i32, i32 }
%struct.AVCodecParameters = type { i32, i32, i32, ptr, i32, ptr, i32, i32, i64, i32, i32, i32, i32, i32, i32, %struct.AVRational, %struct.AVRational, i32, i32, i32, i32, i32, i32, i32, %struct.AVChannelLayout, i32, i32, i32, i32, i32, i32 }
%struct.AVChannelLayout = type { i32, i32, %union.anon.0, ptr }
%union.anon.0 = type { i64 }
%struct.FFInputFormat = type { %struct.AVInputFormat, i32, i32, i32, ptr, ptr, ptr, ptr, ptr, ptr, ptr, ptr, ptr, ptr }
%struct.AVInputFormat = type { ptr, ptr, i32, ptr, ptr, ptr, ptr }
%struct.PCMAudioDemuxerContext = type { ptr, i32, %struct.AVChannelLayout }

@.str.58 = private unnamed_addr constant [10 x i8] c"mime_type\00", align 1
@.str.59 = private unnamed_addr constant [9 x i8] c" rate=%d\00", align 1
@.str.60 = private unnamed_addr constant [13 x i8] c" channels=%d\00", align 1
@.str.61 = private unnamed_addr constant [17 x i8] c" endianness=%13s\00", align 1
@.str.62 = private unnamed_addr constant [14 x i8] c"little-endian\00", align 1
@.str.63 = private unnamed_addr constant [45 x i8] c"Invalid sample_rate found in mime_type \22%s\22\0A\00", align 1
@.str.64 = private unnamed_addr constant [30 x i8] c"Assertion %s failed at %s:%d\0A\00", align 1
@.str.65 = private unnamed_addr constant [31 x i8] c"par->bits_per_coded_sample > 0\00", align 1
@.str.66 = private unnamed_addr constant [21 x i8] c"libavformat/pcmdec.c\00", align 1

; Function Attrs: inlinehint nounwind uwtable
define internal ptr @ffifmt(ptr noundef %0) #3 {
  %2 = alloca ptr, align 8
  store ptr %0, ptr %2, align 8, !tbaa !59
  %3 = load ptr, ptr %2, align 8, !tbaa !59
  ret ptr %3
}

; Function Attrs: nounwind uwtable
define internal i32 @pcm_read_header(ptr noundef %0) #0 {
  %2 = alloca i32, align 4
  %3 = alloca ptr, align 8
  %4 = alloca ptr, align 8
  %5 = alloca ptr, align 8
  %6 = alloca ptr, align 8
  %7 = alloca ptr, align 8
  %8 = alloca i32, align 4
  %9 = alloca i32, align 4
  %10 = alloca i32, align 4
  %11 = alloca i32, align 4
  %12 = alloca i32, align 4
  %13 = alloca ptr, align 8
  %14 = alloca [14 x i8], align 1
  store ptr %0, ptr %3, align 8, !tbaa !4
  call void @llvm.lifetime.start.p0(i64 8, ptr %4) #7
  %15 = load ptr, ptr %3, align 8, !tbaa !4
  %16 = getelementptr inbounds nuw %struct.AVFormatContext, ptr %15, i32 0, i32 3
  %17 = load ptr, ptr %16, align 8, !tbaa !9
  store ptr %17, ptr %4, align 8, !tbaa !26
  call void @llvm.lifetime.start.p0(i64 8, ptr %5) #7
  call void @llvm.lifetime.start.p0(i64 8, ptr %6) #7
  call void @llvm.lifetime.start.p0(i64 8, ptr %7) #7
  store ptr null, ptr %7, align 8, !tbaa !28
  call void @llvm.lifetime.start.p0(i64 4, ptr %8) #7
  %18 = load ptr, ptr %3, align 8, !tbaa !4
  %19 = call ptr @avformat_new_stream(ptr noundef %18, ptr noundef null)
  store ptr %19, ptr %6, align 8, !tbaa !29
  %20 = load ptr, ptr %6, align 8, !tbaa !29
  %21 = icmp ne ptr %20, null
  br i1 %21, label %23, label %22

22:                                               ; preds = %1
  store i32 -12, ptr %2, align 4
  store i32 1, ptr %9, align 4
  br label %169

23:                                               ; preds = %1
  %24 = load ptr, ptr %6, align 8, !tbaa !29
  %25 = getelementptr inbounds nuw %struct.AVStream, ptr %24, i32 0, i32 3
  %26 = load ptr, ptr %25, align 8, !tbaa !31
  store ptr %26, ptr %5, align 8, !tbaa !38
  %27 = load ptr, ptr %5, align 8, !tbaa !38
  %28 = getelementptr inbounds nuw %struct.AVCodecParameters, ptr %27, i32 0, i32 0
  store i32 1, ptr %28, align 8, !tbaa !39
  %29 = load ptr, ptr %3, align 8, !tbaa !4
  %30 = getelementptr inbounds nuw %struct.AVFormatContext, ptr %29, i32 0, i32 1
  %31 = load ptr, ptr %30, align 8, !tbaa !42
  %32 = call ptr @ffifmt(ptr noundef %31)
  %33 = getelementptr inbounds nuw %struct.FFInputFormat, ptr %32, i32 0, i32 1
  %34 = load i32, ptr %33, align 8, !tbaa !43
  %35 = load ptr, ptr %5, align 8, !tbaa !38
  %36 = getelementptr inbounds nuw %struct.AVCodecParameters, ptr %35, i32 0, i32 1
  store i32 %34, ptr %36, align 4, !tbaa !47
  %37 = load ptr, ptr %4, align 8, !tbaa !26
  %38 = getelementptr inbounds nuw %struct.PCMAudioDemuxerContext, ptr %37, i32 0, i32 1
  %39 = load i32, ptr %38, align 8, !tbaa !48
  %40 = load ptr, ptr %5, align 8, !tbaa !38
  %41 = getelementptr inbounds nuw %struct.AVCodecParameters, ptr %40, i32 0, i32 25
  store i32 %39, ptr %41, align 8, !tbaa !50
  %42 = load ptr, ptr %5, align 8, !tbaa !38
  %43 = getelementptr inbounds nuw %struct.AVCodecParameters, ptr %42, i32 0, i32 24
  %44 = load ptr, ptr %4, align 8, !tbaa !26
  %45 = getelementptr inbounds nuw %struct.PCMAudioDemuxerContext, ptr %44, i32 0, i32 2
  %46 = call i32 @av_channel_layout_copy(ptr noundef %43, ptr noundef %45)
  store i32 %46, ptr %8, align 4, !tbaa !51
  %47 = load i32, ptr %8, align 4, !tbaa !51
  %48 = icmp slt i32 %47, 0
  br i1 %48, label %49, label %51

49:                                               ; preds = %23
  %50 = load i32, ptr %8, align 4, !tbaa !51
  store i32 %50, ptr %2, align 4
  store i32 1, ptr %9, align 4
  br label %169

51:                                               ; preds = %23
  %52 = load ptr, ptr %3, align 8, !tbaa !4
  %53 = getelementptr inbounds nuw %struct.AVFormatContext, ptr %52, i32 0, i32 4
  %54 = load ptr, ptr %53, align 8, !tbaa !52
  %55 = call i32 @av_opt_get(ptr noundef %54, ptr noundef @.str.58, i32 noundef 1, ptr noundef %7)
  %56 = load ptr, ptr %7, align 8, !tbaa !28
  %57 = icmp ne ptr %56, null
  br i1 %57, label %58, label %138

58:                                               ; preds = %51
  %59 = load ptr, ptr %3, align 8, !tbaa !4
  %60 = getelementptr inbounds nuw %struct.AVFormatContext, ptr %59, i32 0, i32 1
  %61 = load ptr, ptr %60, align 8, !tbaa !42
  %62 = getelementptr inbounds nuw %struct.AVInputFormat, ptr %61, i32 0, i32 6
  %63 = load ptr, ptr %62, align 8, !tbaa !53
  %64 = icmp ne ptr %63, null
  br i1 %64, label %65, label %138

65:                                               ; preds = %58
  call void @llvm.lifetime.start.p0(i64 4, ptr %10) #7
  store i32 0, ptr %10, align 4, !tbaa !51
  call void @llvm.lifetime.start.p0(i64 4, ptr %11) #7
  store i32 0, ptr %11, align 4, !tbaa !51
  call void @llvm.lifetime.start.p0(i64 4, ptr %12) #7
  store i32 0, ptr %12, align 4, !tbaa !51
  call void @llvm.lifetime.start.p0(i64 8, ptr %13) #7
  %66 = load ptr, ptr %7, align 8, !tbaa !28
  %67 = load ptr, ptr %3, align 8, !tbaa !4
  %68 = getelementptr inbounds nuw %struct.AVFormatContext, ptr %67, i32 0, i32 1
  %69 = load ptr, ptr %68, align 8, !tbaa !42
  %70 = getelementptr inbounds nuw %struct.AVInputFormat, ptr %69, i32 0, i32 6
  %71 = load ptr, ptr %70, align 8, !tbaa !53
  %72 = call i32 @av_stristart(ptr noundef %66, ptr noundef %71, ptr noundef %13)
  %73 = icmp ne i32 %72, 0
  br i1 %73, label %74, label %134

74:                                               ; preds = %65
  br label %75

75:                                               ; preds = %107, %74
  %76 = load ptr, ptr %13, align 8, !tbaa !28
  %77 = call ptr @strchr(ptr noundef %76, i32 noundef 59) #8
  store ptr %77, ptr %13, align 8, !tbaa !28
  %78 = icmp ne ptr %77, null
  br i1 %78, label %79, label %108

79:                                               ; preds = %75
  %80 = load ptr, ptr %13, align 8, !tbaa !28
  %81 = getelementptr inbounds nuw i8, ptr %80, i32 1
  store ptr %81, ptr %13, align 8, !tbaa !28
  %82 = load i32, ptr %10, align 4, !tbaa !51
  %83 = icmp ne i32 %82, 0
  br i1 %83, label %87, label %84

84:                                               ; preds = %79
  %85 = load ptr, ptr %13, align 8, !tbaa !28
  %86 = call i32 (ptr, ptr, ...) @__isoc99_sscanf(ptr noundef %85, ptr noundef @.str.59, ptr noundef %10) #7
  br label %87

87:                                               ; preds = %84, %79
  %88 = load i32, ptr %11, align 4, !tbaa !51
  %89 = icmp ne i32 %88, 0
  br i1 %89, label %93, label %90

90:                                               ; preds = %87
  %91 = load ptr, ptr %13, align 8, !tbaa !28
  %92 = call i32 (ptr, ptr, ...) @__isoc99_sscanf(ptr noundef %91, ptr noundef @.str.60, ptr noundef %11) #7
  br label %93

93:                                               ; preds = %90, %87
  %94 = load i32, ptr %12, align 4, !tbaa !51
  %95 = icmp ne i32 %94, 0
  br i1 %95, label %107, label %96

96:                                               ; preds = %93
  call void @llvm.lifetime.start.p0(i64 14, ptr %14) #7
  %97 = load ptr, ptr %13, align 8, !tbaa !28
  %98 = getelementptr inbounds [14 x i8], ptr %14, i64 0, i64 0
  %99 = call i32 (ptr, ptr, ...) @__isoc99_sscanf(ptr noundef %97, ptr noundef @.str.61, ptr noundef %98) #7
  %100 = icmp eq i32 %99, 1
  br i1 %100, label %101, label %106

101:                                              ; preds = %96
  %102 = getelementptr inbounds [14 x i8], ptr %14, i64 0, i64 0
  %103 = call i32 @strcmp(ptr noundef %102, ptr noundef @.str.62) #8
  %104 = icmp eq i32 %103, 0
  %105 = zext i1 %104 to i32
  store i32 %105, ptr %12, align 4, !tbaa !51
  br label %106

106:                                              ; preds = %101, %96
  call void @llvm.lifetime.end.p0(i64 14, ptr %14) #7
  br label %107

107:                                              ; preds = %106, %93
  br label %75, !llvm.loop !54

108:                                              ; preds = %75
  %109 = load i32, ptr %10, align 4, !tbaa !51
  %110 = icmp sle i32 %109, 0
  br i1 %110, label %111, label %114

111:                                              ; preds = %108
  %112 = load ptr, ptr %3, align 8, !tbaa !4
  %113 = load ptr, ptr %7, align 8, !tbaa !28
  call void (ptr, i32, ptr, ...) @av_log(ptr noundef %112, i32 noundef 16, ptr noundef @.str.63, ptr noundef %113)
  call void @av_freep(ptr noundef %7)
  store i32 -1094995529, ptr %2, align 4
  store i32 1, ptr %9, align 4
  br label %135

114:                                              ; preds = %108
  %115 = load i32, ptr %10, align 4, !tbaa !51
  %116 = load ptr, ptr %5, align 8, !tbaa !38
  %117 = getelementptr inbounds nuw %struct.AVCodecParameters, ptr %116, i32 0, i32 25
  store i32 %115, ptr %117, align 8, !tbaa !50
  %118 = load i32, ptr %11, align 4, !tbaa !51
  %119 = icmp sgt i32 %118, 0
  br i1 %119, label %120, label %127

120:                                              ; preds = %114
  %121 = load ptr, ptr %5, align 8, !tbaa !38
  %122 = getelementptr inbounds nuw %struct.AVCodecParameters, ptr %121, i32 0, i32 24
  call void @av_channel_layout_uninit(ptr noundef %122)
  %123 = load i32, ptr %11, align 4, !tbaa !51
  %124 = load ptr, ptr %5, align 8, !tbaa !38
  %125 = getelementptr inbounds nuw %struct.AVCodecParameters, ptr %124, i32 0, i32 24
  %126 = getelementptr inbounds nuw %struct.AVChannelLayout, ptr %125, i32 0, i32 1
  store i32 %123, ptr %126, align 4, !tbaa !56
  br label %127

127:                                              ; preds = %120, %114
  %128 = load i32, ptr %12, align 4, !tbaa !51
  %129 = icmp ne i32 %128, 0
  br i1 %129, label %130, label %133

130:                                              ; preds = %127
  %131 = load ptr, ptr %5, align 8, !tbaa !38
  %132 = getelementptr inbounds nuw %struct.AVCodecParameters, ptr %131, i32 0, i32 1
  store i32 65536, ptr %132, align 4, !tbaa !47
  br label %133

133:                                              ; preds = %130, %127
  br label %134

134:                                              ; preds = %133, %65
  store i32 0, ptr %9, align 4
  br label %135

135:                                              ; preds = %134, %111
  call void @llvm.lifetime.end.p0(i64 8, ptr %13) #7
  call void @llvm.lifetime.end.p0(i64 4, ptr %12) #7
  call void @llvm.lifetime.end.p0(i64 4, ptr %11) #7
  call void @llvm.lifetime.end.p0(i64 4, ptr %10) #7
  %136 = load i32, ptr %9, align 4
  switch i32 %136, label %169 [
    i32 0, label %137
  ]

137:                                              ; preds = %135
  br label %138

138:                                              ; preds = %137, %58, %51
  call void @av_freep(ptr noundef %7)
  %139 = load ptr, ptr %5, align 8, !tbaa !38
  %140 = getelementptr inbounds nuw %struct.AVCodecParameters, ptr %139, i32 0, i32 1
  %141 = load i32, ptr %140, align 4, !tbaa !47
  %142 = call i32 @av_get_bits_per_sample(i32 noundef %141)
  %143 = load ptr, ptr %5, align 8, !tbaa !38
  %144 = getelementptr inbounds nuw %struct.AVCodecParameters, ptr %143, i32 0, i32 9
  store i32 %142, ptr %144, align 8, !tbaa !57
  br label %145

145:                                              ; preds = %138
  %146 = load ptr, ptr %5, align 8, !tbaa !38
  %147 = getelementptr inbounds nuw %struct.AVCodecParameters, ptr %146, i32 0, i32 9
  %148 = load i32, ptr %147, align 8, !tbaa !57
  %149 = icmp sgt i32 %148, 0
  br i1 %149, label %151, label %150

150:                                              ; preds = %145
  call void (ptr, i32, ptr, ...) @av_log(ptr noundef null, i32 noundef 0, ptr noundef @.str.64, ptr noundef @.str.65, ptr noundef @.str.66, i32 noundef 99)
  call void @abort() #9
  unreachable

151:                                              ; preds = %145
  br label %152

152:                                              ; preds = %151
  br label %153

153:                                              ; preds = %152
  %154 = load ptr, ptr %5, align 8, !tbaa !38
  %155 = getelementptr inbounds nuw %struct.AVCodecParameters, ptr %154, i32 0, i32 9
  %156 = load i32, ptr %155, align 8, !tbaa !57
  %157 = load ptr, ptr %5, align 8, !tbaa !38
  %158 = getelementptr inbounds nuw %struct.AVCodecParameters, ptr %157, i32 0, i32 24
  %159 = getelementptr inbounds nuw %struct.AVChannelLayout, ptr %158, i32 0, i32 1
  %160 = load i32, ptr %159, align 4, !tbaa !56
  %161 = mul nsw i32 %156, %160
  %162 = sdiv i32 %161, 8
  %163 = load ptr, ptr %5, align 8, !tbaa !38
  %164 = getelementptr inbounds nuw %struct.AVCodecParameters, ptr %163, i32 0, i32 26
  store i32 %162, ptr %164, align 4, !tbaa !58
  %165 = load ptr, ptr %6, align 8, !tbaa !29
  %166 = load ptr, ptr %5, align 8, !tbaa !38
  %167 = getelementptr inbounds nuw %struct.AVCodecParameters, ptr %166, i32 0, i32 25
  %168 = load i32, ptr %167, align 8, !tbaa !50
  call void @avpriv_set_pts_info(ptr noundef %165, i32 noundef 64, i32 noundef 1, i32 noundef %168)
  store i32 0, ptr %2, align 4
  store i32 1, ptr %9, align 4
  br label %169

169:                                              ; preds = %153, %135, %49, %22
  call void @llvm.lifetime.end.p0(i64 4, ptr %8) #7
  call void @llvm.lifetime.end.p0(i64 8, ptr %7) #7
  call void @llvm.lifetime.end.p0(i64 8, ptr %6) #7
  call void @llvm.lifetime.end.p0(i64 8, ptr %5) #7
  call void @llvm.lifetime.end.p0(i64 8, ptr %4) #7
  %170 = load i32, ptr %2, align 4
  ret i32 %170
}