; Function Attrs: nounwind uwtable
define internal range(i32 -2147483648, 1) i32 @pcm_read_header(ptr noundef %0) #0 {
  %2 = alloca ptr, align 8
  %3 = alloca i32, align 4
  %4 = alloca i32, align 4
  %5 = alloca ptr, align 8
  %6 = alloca [14 x i8], align 1
  %7 = getelementptr inbounds nuw i8, ptr %0, i64 24
  %8 = load ptr, ptr %7, align 8, !tbaa !4
  call void @llvm.lifetime.start.p0(i64 8, ptr nonnull %2) #7
  store ptr null, ptr %2, align 8, !tbaa !24
  %9 = tail call ptr @avformat_new_stream(ptr noundef %0, ptr noundef null) #7
  %.not = icmp eq ptr %9, null
  br i1 %.not, label %83, label %10

10:                                               ; preds = %1
  %11 = getelementptr inbounds nuw i8, ptr %9, i64 16
  %12 = load ptr, ptr %11, align 8, !tbaa !25
  store i32 1, ptr %12, align 8, !tbaa !32
  %13 = getelementptr inbounds nuw i8, ptr %0, i64 8
  %14 = load ptr, ptr %13, align 8, !tbaa !35
  %15 = getelementptr inbounds nuw i8, ptr %14, i64 56
  %16 = load i32, ptr %15, align 8, !tbaa !36
  %17 = getelementptr inbounds nuw i8, ptr %12, i64 4
  store i32 %16, ptr %17, align 4, !tbaa !40
  %18 = getelementptr inbounds nuw i8, ptr %8, i64 8
  %19 = load i32, ptr %18, align 8, !tbaa !41
  %20 = getelementptr inbounds nuw i8, ptr %12, i64 152
  store i32 %19, ptr %20, align 8, !tbaa !43
  %21 = getelementptr inbounds nuw i8, ptr %12, i64 128
  %22 = getelementptr inbounds nuw i8, ptr %8, i64 16
  %23 = tail call i32 @av_channel_layout_copy(ptr noundef nonnull %21, ptr noundef nonnull %22) #7
  %24 = icmp slt i32 %23, 0
  br i1 %24, label %83, label %25

25:                                               ; preds = %10
  %26 = getelementptr inbounds nuw i8, ptr %0, i64 32
  %27 = load ptr, ptr %26, align 8, !tbaa !44
  %28 = call i32 @av_opt_get(ptr noundef %27, ptr noundef nonnull @.str.58, i32 noundef 1, ptr noundef nonnull %2) #7
  %29 = load ptr, ptr %2, align 8, !tbaa !24
  %.not40 = icmp eq ptr %29, null
  br i1 %.not40, label %70, label %30

30:                                               ; preds = %25
  %31 = load ptr, ptr %13, align 8, !tbaa !35
  %32 = getelementptr inbounds nuw i8, ptr %31, i64 48
  %33 = load ptr, ptr %32, align 8, !tbaa !45
  %.not41 = icmp eq ptr %33, null
  br i1 %.not41, label %70, label %34

34:                                               ; preds = %30
  call void @llvm.lifetime.start.p0(i64 4, ptr nonnull %3) #7
  store i32 0, ptr %3, align 4, !tbaa !46
  call void @llvm.lifetime.start.p0(i64 4, ptr nonnull %4) #7
  store i32 0, ptr %4, align 4, !tbaa !46
  call void @llvm.lifetime.start.p0(i64 8, ptr nonnull %5) #7
  %35 = call i32 @av_stristart(ptr noundef nonnull %29, ptr noundef nonnull %33, ptr noundef nonnull %5) #7
  %.not42 = icmp eq i32 %35, 0
  br i1 %.not42, label %69, label %.preheader

.preheader:                                       ; preds = %34
  %36 = load ptr, ptr %5, align 8, !tbaa !24
  %37 = call ptr @strchr(ptr noundef nonnull dereferenceable(1) %36, i32 noundef 59) #8
  store ptr %37, ptr %5, align 8, !tbaa !24
  %.not4348 = icmp eq ptr %37, null
  br i1 %.not4348, label %.critedge, label %.lr.ph

.lr.ph:                                           ; preds = %.preheader, %55
  %38 = phi ptr [ %57, %55 ], [ %37, %.preheader ]
  %.049 = phi i32 [ %.1, %55 ], [ 0, %.preheader ]
  %39 = getelementptr inbounds nuw i8, ptr %38, i64 1
  store ptr %39, ptr %5, align 8, !tbaa !24
  %40 = load i32, ptr %3, align 4, !tbaa !46
  %.not45 = icmp eq i32 %40, 0
  br i1 %.not45, label %41, label %43

41:                                               ; preds = %.lr.ph
  %42 = call i32 (ptr, ptr, ...) @__isoc99_sscanf(ptr noundef nonnull %39, ptr noundef nonnull @.str.59, ptr noundef nonnull %3) #7
  %.pre50.pre52.pre = load ptr, ptr %5, align 8, !tbaa !24
  br label %43

43:                                               ; preds = %41, %.lr.ph
  %.pre50.pre52 = phi ptr [ %.pre50.pre52.pre, %41 ], [ %39, %.lr.ph ]
  %44 = load i32, ptr %4, align 4, !tbaa !46
  %.not46 = icmp eq i32 %44, 0
  br i1 %.not46, label %45, label %47

45:                                               ; preds = %43
  %46 = call i32 (ptr, ptr, ...) @__isoc99_sscanf(ptr noundef %.pre50.pre52, ptr noundef nonnull @.str.60, ptr noundef nonnull %4) #7
  %.pre50.pre = load ptr, ptr %5, align 8, !tbaa !24
  br label %47

47:                                               ; preds = %45, %43
  %.pre50 = phi ptr [ %.pre50.pre, %45 ], [ %.pre50.pre52, %43 ]
  %.not47 = icmp eq i32 %.049, 0
  br i1 %.not47, label %48, label %55

48:                                               ; preds = %47
  call void @llvm.lifetime.start.p0(i64 14, ptr nonnull %6) #7
  %49 = call i32 (ptr, ptr, ...) @__isoc99_sscanf(ptr noundef %.pre50, ptr noundef nonnull @.str.61, ptr noundef nonnull %6) #7
  %50 = icmp eq i32 %49, 1
  br i1 %50, label %51, label %54

51:                                               ; preds = %48
  %bcmp = call i32 @bcmp(ptr noundef nonnull dereferenceable(14) %6, ptr noundef nonnull dereferenceable(14) @.str.62, i64 14)
  %52 = icmp eq i32 %bcmp, 0
  %53 = zext i1 %52 to i32
  br label %54

54:                                               ; preds = %51, %48
  %.2 = phi i32 [ %53, %51 ], [ 0, %48 ]
  call void @llvm.lifetime.end.p0(i64 14, ptr nonnull %6) #7
  %.pre = load ptr, ptr %5, align 8, !tbaa !24
  br label %55

55:                                               ; preds = %54, %47
  %56 = phi ptr [ %.pre50, %47 ], [ %.pre, %54 ]
  %.1 = phi i32 [ 1, %47 ], [ %.2, %54 ]
  %57 = call ptr @strchr(ptr noundef nonnull dereferenceable(1) %56, i32 noundef 59) #8
  store ptr %57, ptr %5, align 8, !tbaa !24
  %.not43 = icmp eq ptr %57, null
  br i1 %.not43, label %._crit_edge, label %.lr.ph, !llvm.loop !47

._crit_edge:                                      ; preds = %55
  %.pre51 = load i32, ptr %3, align 4, !tbaa !46
  %58 = icmp eq i32 %.1, 0
  %59 = icmp slt i32 %.pre51, 1
  br i1 %59, label %.critedge, label %61

.critedge:                                        ; preds = %.preheader, %._crit_edge
  %60 = load ptr, ptr %2, align 8, !tbaa !24
  call void (ptr, i32, ptr, ...) @av_log(ptr noundef %0, i32 noundef 16, ptr noundef nonnull @.str.63, ptr noundef %60) #7
  call void @av_freep(ptr noundef nonnull %2) #7
  call void @llvm.lifetime.end.p0(i64 8, ptr nonnull %5) #7
  call void @llvm.lifetime.end.p0(i64 4, ptr nonnull %4) #7
  call void @llvm.lifetime.end.p0(i64 4, ptr nonnull %3) #7
  br label %83

61:                                               ; preds = %._crit_edge
  store i32 %.pre51, ptr %20, align 8, !tbaa !43
  %62 = load i32, ptr %4, align 4, !tbaa !46
  %63 = icmp sgt i32 %62, 0
  br i1 %63, label %64, label %67

64:                                               ; preds = %61
  call void @av_channel_layout_uninit(ptr noundef nonnull %21) #7
  %65 = load i32, ptr %4, align 4, !tbaa !46
  %66 = getelementptr inbounds nuw i8, ptr %12, i64 132
  store i32 %65, ptr %66, align 4, !tbaa !49
  br label %67

67:                                               ; preds = %64, %61
  br i1 %58, label %69, label %68

68:                                               ; preds = %67
  store i32 65536, ptr %17, align 4, !tbaa !40
  br label %69

69:                                               ; preds = %34, %68, %67
  call void @llvm.lifetime.end.p0(i64 8, ptr nonnull %5) #7
  call void @llvm.lifetime.end.p0(i64 4, ptr nonnull %4) #7
  call void @llvm.lifetime.end.p0(i64 4, ptr nonnull %3) #7
  br label %70

70:                                               ; preds = %69, %30, %25
  call void @av_freep(ptr noundef nonnull %2) #7
  %71 = load i32, ptr %17, align 4, !tbaa !40
  %72 = call i32 @av_get_bits_per_sample(i32 noundef %71) #7
  %73 = getelementptr inbounds nuw i8, ptr %12, i64 56
  store i32 %72, ptr %73, align 8, !tbaa !50
  %74 = icmp sgt i32 %72, 0
  br i1 %74, label %76, label %75

75:                                               ; preds = %70
  call void (ptr, i32, ptr, ...) @av_log(ptr noundef null, i32 noundef 0, ptr noundef nonnull @.str.64, ptr noundef nonnull @.str.65, ptr noundef nonnull @.str.66, i32 noundef 99) #7
  call void @abort() #9
  unreachable

76:                                               ; preds = %70
  %77 = getelementptr inbounds nuw i8, ptr %12, i64 132
  %78 = load i32, ptr %77, align 4, !tbaa !49
  %79 = mul nsw i32 %78, %72
  %80 = sdiv i32 %79, 8
  %81 = getelementptr inbounds nuw i8, ptr %12, i64 156
  store i32 %80, ptr %81, align 4, !tbaa !51
  %82 = load i32, ptr %20, align 8, !tbaa !43
  call void @avpriv_set_pts_info(ptr noundef nonnull %9, i32 noundef 64, i32 noundef 1, i32 noundef %82) #7
  br label %83

83:                                               ; preds = %.critedge, %10, %1, %76
  %.033 = phi i32 [ 0, %76 ], [ -12, %1 ], [ %23, %10 ], [ -1094995529, %.critedge ]
  call void @llvm.lifetime.end.p0(i64 8, ptr nonnull %2) #7
  ret i32 %.033
}